; Function Attrs: mustprogress uwtable
define void @_ZN3gmx21ShellCompletionWriter17finishCompletionsEv(ptr nocapture noundef nonnull readonly align 8 dereferenceable(8) %0) local_unnamed_addr #0 align 2 {
  %2 = load ptr, ptr %0, align 8
  %3 = getelementptr inbounds i8, ptr %2, i64 32
  %4 = load ptr, ptr %3, align 8
  tail call void @_ZN3gmx10TextWriter5closeEv(ptr noundef nonnull align 8 dereferenceable(8) %4)
  %5 = load ptr, ptr %0, align 8
  %6 = getelementptr inbounds i8, ptr %5, i64 32
  %7 = load ptr, ptr %6, align 8
  store ptr null, ptr %6, align 8
  %.not.i.i = icmp eq ptr %7, null
  br i1 %.not.i.i, label %_ZNSt10unique_ptrIN3gmx10TextWriterESt14default_deleteIS1_EE5resetEPS1_.exit, label %_ZNKSt14default_deleteIN3gmx10TextWriterEEclEPS1_.exit.i.i

_ZNKSt14default_deleteIN3gmx10TextWriterEEclEPS1_.exit.i.i: ; preds = %1
  tail call void @_ZN3gmx10TextWriterD1Ev(ptr noundef nonnull align 8 dereferenceable(8) %7) #15
  tail call void @_ZdlPv(ptr noundef nonnull %7) #14
  br label %_ZNSt10unique_ptrIN3gmx10TextWriterESt14default_deleteIS1_EE5resetEPS1_.exit

_ZNSt10unique_ptrIN3gmx10TextWriterESt14default_deleteIS1_EE5resetEPS1_.exit: ; preds = %1, %_ZNKSt14default_deleteIN3gmx10TextWriterEEclEPS1_.exit.i.i
  ret void
}